target datalayout = "e-m:e-p270:32:32-p271:32:32-p272:64:64-i64:64-i128:128-f80:128-n8:16:32:64-S128"
target triple = "x86_64-pc-linux-gnu"

@preseed = internal global i32 0, align 4
@postseed = internal global i32 0, align 4

; Function Attrs: nounwind null_pointer_is_valid sspstrong uwtable
define i32 @wmem_strong_hash(ptr noundef %0, i64 noundef %1) #6 {
  %3 = alloca ptr, align 8
  %4 = alloca i64, align 8
  %5 = alloca ptr, align 8
  %6 = alloca i32, align 4
  store ptr %0, ptr %3, align 8
  store i64 %1, ptr %4, align 8
  call void @llvm.lifetime.start.p0(i64 8, ptr %5) #8
  %7 = load ptr, ptr %3, align 8
  %8 = load i64, ptr %4, align 8
  %9 = getelementptr i8, ptr %7, i64 %8
  store ptr %9, ptr %5, align 8
  call void @llvm.lifetime.start.p0(i64 4, ptr %6) #8
  %10 = load i32, ptr @preseed, align 4
  %11 = load i64, ptr %4, align 8
  %12 = trunc i64 %11 to i32
  %13 = add i32 %10, %12
  store i32 %13, ptr %6, align 4
  br label %14

14:                                               ; preds = %18, %2
  %15 = load ptr, ptr %3, align 8
  %16 = load ptr, ptr %5, align 8
  %17 = icmp ult ptr %15, %16
  br i1 %17, label %18, label %33

18:                                               ; preds = %14
  %19 = load i32, ptr %6, align 4
  %20 = shl i32 %19, 10
  %21 = load i32, ptr %6, align 4
  %22 = add i32 %21, %20
  store i32 %22, ptr %6, align 4
  %23 = load i32, ptr %6, align 4
  %24 = lshr i32 %23, 6
  %25 = load i32, ptr %6, align 4
  %26 = xor i32 %25, %24
  store i32 %26, ptr %6, align 4
  %27 = load ptr, ptr %3, align 8
  %28 = getelementptr i8, ptr %27, i32 1
  store ptr %28, ptr %3, align 8
  %29 = load i8, ptr %27, align 1
  %30 = zext i8 %29 to i32
  %31 = load i32, ptr %6, align 4
  %32 = add i32 %31, %30
  store i32 %32, ptr %6, align 4
  br label %14, !llvm.loop !23

33:                                               ; preds = %14
  %34 = load i32, ptr %6, align 4
  %35 = shl i32 %34, 10
  %36 = load i32, ptr %6, align 4
  %37 = add i32 %36, %35
  store i32 %37, ptr %6, align 4
  %38 = load i32, ptr %6, align 4
  %39 = lshr i32 %38, 6
  %40 = load i32, ptr %6, align 4
  %41 = xor i32 %40, %39
  store i32 %41, ptr %6, align 4
  %42 = load i8, ptr @postseed, align 4
  %43 = zext i8 %42 to i32
  %44 = load i32, ptr %6, align 4
  %45 = add i32 %44, %43
  store i32 %45, ptr %6, align 4
  %46 = load i32, ptr %6, align 4
  %47 = shl i32 %46, 10
  %48 = load i32, ptr %6, align 4
  %49 = add i32 %48, %47
  store i32 %49, ptr %6, align 4
  %50 = load i32, ptr %6, align 4
  %51 = lshr i32 %50, 6
  %52 = load i32, ptr %6, align 4
  %53 = xor i32 %52, %51
  store i32 %53, ptr %6, align 4
  %54 = load i8, ptr getelementptr (i8, ptr @postseed, i64 1), align 1
  %55 = zext i8 %54 to i32
  %56 = load i32, ptr %6, align 4
  %57 = add i32 %56, %55
  store i32 %57, ptr %6, align 4
  %58 = load i32, ptr %6, align 4
  %59 = shl i32 %58, 10
  %60 = load i32, ptr %6, align 4
  %61 = add i32 %60, %59
  store i32 %61, ptr %6, align 4
  %62 = load i32, ptr %6, align 4
  %63 = lshr i32 %62, 6
  %64 = load i32, ptr %6, align 4
  %65 = xor i32 %64, %63
  store i32 %65, ptr %6, align 4
  %66 = load i8, ptr getelementptr (i8, ptr @postseed, i64 2), align 2
  %67 = zext i8 %66 to i32
  %68 = load i32, ptr %6, align 4
  %69 = add i32 %68, %67
  store i32 %69, ptr %6, align 4
  %70 = load i32, ptr %6, align 4
  %71 = shl i32 %70, 10
  %72 = load i32, ptr %6, align 4
  %73 = add i32 %72, %71
  store i32 %73, ptr %6, align 4
  %74 = load i32, ptr %6, align 4
  %75 = lshr i32 %74, 6
  %76 = load i32, ptr %6, align 4
  %77 = xor i32 %76, %75
  store i32 %77, ptr %6, align 4
  %78 = load i8, ptr getelementptr (i8, ptr @postseed, i64 3), align 1
  %79 = zext i8 %78 to i32
  %80 = load i32, ptr %6, align 4
  %81 = add i32 %80, %79
  store i32 %81, ptr %6, align 4
  %82 = load i32, ptr %6, align 4
  %83 = shl i32 %82, 10
  %84 = load i32, ptr %6, align 4
  %85 = add i32 %84, %83
  store i32 %85, ptr %6, align 4
  %86 = load i32, ptr %6, align 4
  %87 = lshr i32 %86, 6
  %88 = load i32, ptr %6, align 4
  %89 = xor i32 %88, %87
  store i32 %89, ptr %6, align 4
  %90 = load i32, ptr %6, align 4
  %91 = shl i32 %90, 3
  %92 = load i32, ptr %6, align 4
  %93 = add i32 %92, %91
  store i32 %93, ptr %6, align 4
  %94 = load i32, ptr %6, align 4
  %95 = lshr i32 %94, 11
  %96 = load i32, ptr %6, align 4
  %97 = xor i32 %96, %95
  store i32 %97, ptr %6, align 4
  %98 = load i32, ptr %6, align 4
  %99 = load i32, ptr %6, align 4
  %100 = shl i32 %99, 15
  %101 = add i32 %98, %100
  call void @llvm.lifetime.end.p0(i64 4, ptr %6) #8
  call void @llvm.lifetime.end.p0(i64 8, ptr %5) #8
  ret i32 %101
}

; Function Attrs: nounwind null_pointer_is_valid sspstrong uwtable
define i32 @wmem_double_hash(ptr noundef %0) #6 {
  %2 = alloca ptr, align 8
  store ptr %0, ptr %2, align 8
  %3 = load ptr, ptr %2, align 8
  %4 = call i32 @wmem_strong_hash(ptr noundef %3, i64 noundef 8)
  ret i32 %4
}