; Function Attrs: nofree norecurse nosync nounwind null_pointer_is_valid sspstrong memory(read, inaccessiblemem: none) uwtable
define i32 @wmem_double_hash(ptr noundef readonly captures(address) %0) local_unnamed_addr #4 {
  %2 = getelementptr i8, ptr %0, i64 8
  %3 = load i32, ptr @preseed, align 4
  %4 = add i32 %3, 8
  %5 = icmp ult ptr %0, %2
  br i1 %5, label %.lr.ph.i, label %wmem_strong_hash.exit

.lr.ph.i:                                         ; preds = %1, %.lr.ph.i
  %.042.i = phi i32 [ %12, %.lr.ph.i ], [ %4, %1 ]
  %.04041.i = phi ptr [ %9, %.lr.ph.i ], [ %0, %1 ]
  %6 = mul i32 %.042.i, 1025
  %7 = lshr i32 %6, 6
  %8 = xor i32 %7, %6
  %9 = getelementptr i8, ptr %.04041.i, i64 1
  %10 = load i8, ptr %.04041.i, align 1
  %11 = zext i8 %10 to i32
  %12 = add i32 %8, %11
  %exitcond.not.i = icmp eq ptr %9, %2
  br i1 %exitcond.not.i, label %wmem_strong_hash.exit, label %.lr.ph.i, !llvm.loop !24

wmem_strong_hash.exit:                            ; preds = %.lr.ph.i, %1
  %.0.lcssa.i = phi i32 [ %4, %1 ], [ %12, %.lr.ph.i ]
  %13 = mul i32 %.0.lcssa.i, 1025
  %14 = lshr i32 %13, 6
  %15 = xor i32 %14, %13
  %16 = load i8, ptr @postseed, align 4
  %17 = zext i8 %16 to i32
  %18 = add i32 %15, %17
  %19 = mul i32 %18, 1025
  %20 = lshr i32 %19, 6
  %21 = xor i32 %20, %19
  %22 = load i8, ptr getelementptr inbounds nuw (i8, ptr @postseed, i64 1), align 1
  %23 = zext i8 %22 to i32
  %24 = add i32 %21, %23
  %25 = mul i32 %24, 1025
  %26 = lshr i32 %25, 6
  %27 = xor i32 %26, %25
  %28 = load i8, ptr getelementptr inbounds nuw (i8, ptr @postseed, i64 2), align 2
  %29 = zext i8 %28 to i32
  %30 = add i32 %27, %29
  %31 = mul i32 %30, 1025
  %32 = lshr i32 %31, 6
  %33 = xor i32 %32, %31
  %34 = load i8, ptr getelementptr inbounds nuw (i8, ptr @postseed, i64 3), align 1
  %35 = zext i8 %34 to i32
  %36 = add i32 %33, %35
  %37 = mul i32 %36, 1025
  %38 = lshr i32 %37, 6
  %39 = xor i32 %38, %37
  %40 = mul i32 %39, 9
  %41 = lshr i32 %40, 11
  %42 = xor i32 %41, %40
  %43 = mul i32 %42, 32769
  ret i32 %43
}